target datalayout = "e-m:e-p270:32:32-p271:32:32-p272:64:64-i64:64-i128:128-f80:128-n8:16:32:64-S128"
target triple = "x86_64-pc-linux-gnu"

%struct.evp_kdf_st = type { ptr, i32, ptr, ptr, %struct.CRYPTO_REF_COUNT, ptr, ptr, ptr, ptr, ptr, ptr, ptr, ptr, ptr, ptr, ptr }
%struct.CRYPTO_REF_COUNT = type { i32 }

@.str = private unnamed_addr constant [33 x i8] c"../openssl/crypto/evp/kdf_meth.c\00", align 1

; Function Attrs: inlinehint nounwind uwtable
define internal void @CRYPTO_FREE_REF(ptr noundef %0) #3 {
  %2 = alloca ptr, align 8
  store ptr %0, ptr %2, align 8, !tbaa !44
  ret void
}

; Function Attrs: inlinehint nounwind uwtable
define internal i32 @CRYPTO_DOWN_REF(ptr noundef %0, ptr noundef %1) #3 {
  %3 = alloca ptr, align 8
  %4 = alloca ptr, align 8
  %5 = alloca i32, align 4
  %6 = alloca i32, align 4
  store ptr %0, ptr %3, align 8, !tbaa !44
  store ptr %1, ptr %4, align 8, !tbaa !52
  %7 = load ptr, ptr %3, align 8, !tbaa !44
  %8 = getelementptr inbounds nuw %struct.CRYPTO_REF_COUNT, ptr %7, i32 0, i32 0
  store i32 1, ptr %5, align 4, !tbaa !10
  %9 = load i32, ptr %5, align 4
  %10 = atomicrmw sub ptr %8, i32 %9 release, align 4
  store i32 %10, ptr %6, align 4
  %11 = load i32, ptr %6, align 4, !tbaa !10
  %12 = sub nsw i32 %11, 1
  %13 = load ptr, ptr %4, align 8, !tbaa !52
  store i32 %12, ptr %13, align 4, !tbaa !10
  %14 = load ptr, ptr %4, align 8, !tbaa !52
  %15 = load i32, ptr %14, align 4, !tbaa !10
  %16 = icmp eq i32 %15, 0
  br i1 %16, label %17, label %18

17:                                               ; preds = %2
  fence acquire
  br label %18

18:                                               ; preds = %17, %2
  ret i32 1
}

; Function Attrs: nounwind uwtable
define internal void @evp_kdf_free(ptr noundef %0) #0 {
  %2 = alloca ptr, align 8
  %3 = alloca ptr, align 8
  %4 = alloca i32, align 4
  %5 = alloca i32, align 4
  store ptr %0, ptr %2, align 8, !tbaa !44
  call void @llvm.lifetime.start.p0(i64 8, ptr %3) #4
  %6 = load ptr, ptr %2, align 8, !tbaa !44
  store ptr %6, ptr %3, align 8, !tbaa !20
  call void @llvm.lifetime.start.p0(i64 4, ptr %4) #4
  store i32 0, ptr %4, align 4, !tbaa !10
  %7 = load ptr, ptr %3, align 8, !tbaa !20
  %8 = icmp eq ptr %7, null
  br i1 %8, label %9, label %10

9:                                                ; preds = %1
  store i32 1, ptr %5, align 4
  br label %27

10:                                               ; preds = %1
  %11 = load ptr, ptr %3, align 8, !tbaa !20
  %12 = getelementptr inbounds nuw %struct.evp_kdf_st, ptr %11, i32 0, i32 4
  %13 = call i32 @CRYPTO_DOWN_REF(ptr noundef %12, ptr noundef %4)
  %14 = load i32, ptr %4, align 4, !tbaa !10
  %15 = icmp sgt i32 %14, 0
  br i1 %15, label %16, label %17

16:                                               ; preds = %10
  store i32 1, ptr %5, align 4
  br label %27

17:                                               ; preds = %10
  %18 = load ptr, ptr %3, align 8, !tbaa !20
  %19 = getelementptr inbounds nuw %struct.evp_kdf_st, ptr %18, i32 0, i32 2
  %20 = load ptr, ptr %19, align 8, !tbaa !25
  call void @CRYPTO_free(ptr noundef %20, ptr noundef @.str, i32 noundef 40)
  %21 = load ptr, ptr %3, align 8, !tbaa !20
  %22 = getelementptr inbounds nuw %struct.evp_kdf_st, ptr %21, i32 0, i32 0
  %23 = load ptr, ptr %22, align 8, !tbaa !43
  call void @ossl_provider_free(ptr noundef %23)
  %24 = load ptr, ptr %3, align 8, !tbaa !20
  %25 = getelementptr inbounds nuw %struct.evp_kdf_st, ptr %24, i32 0, i32 4
  call void @CRYPTO_FREE_REF(ptr noundef %25)
  %26 = load ptr, ptr %3, align 8, !tbaa !20
  call void @CRYPTO_free(ptr noundef %26, ptr noundef @.str, i32 noundef 43)
  store i32 0, ptr %5, align 4
  br label %27

27:                                               ; preds = %17, %16, %9
  call void @llvm.lifetime.end.p0(i64 4, ptr %4) #4
  call void @llvm.lifetime.end.p0(i64 8, ptr %3) #4
  %28 = load i32, ptr %5, align 4
  switch i32 %28, label %30 [
    i32 0, label %29
    i32 1, label %29
  ]

29:                                               ; preds = %27, %27
  ret void

30:                                               ; preds = %27
  unreachable
}